; Function Attrs: nounwind uwtable
define noundef ptr @Abc_NtkInitialState(ptr noundef %0) local_unnamed_addr #0 {
  %2 = getelementptr i8, ptr %0, i64 40
  %.val = load ptr, ptr %2, align 8, !tbaa !52
  %3 = getelementptr i8, ptr %.val, i64 4
  %.val.val = load i32, ptr %3, align 4, !tbaa !31
  %4 = tail call ptr @Abc_NtkStartFrom(ptr noundef %0, i32 noundef 3, i32 noundef 3) #13
  %5 = tail call ptr @Abc_AigConst1(ptr noundef %4) #13
  %6 = icmp sgt i32 %.val.val, 1
  br i1 %6, label %.lr.ph, label %._crit_edge

.lr.ph:                                           ; preds = %1
  %7 = lshr i32 %.val.val, 1
  %8 = getelementptr inbounds nuw i8, ptr %4, i64 256
  %9 = getelementptr i8, ptr %4, i64 40
  %wide.trip.count = zext nneg i32 %7 to i64
  br label %10

10:                                               ; preds = %.lr.ph, %10
  %indvars.iv = phi i64 [ 0, %.lr.ph ], [ %indvars.iv.next, %10 ]
  %.016 = phi ptr [ %5, %.lr.ph ], [ %18, %10 ]
  %11 = load ptr, ptr %8, align 8, !tbaa !42
  %.val13 = load ptr, ptr %9, align 8, !tbaa !52
  %12 = getelementptr i8, ptr %.val13, i64 8
  %.val13.val = load ptr, ptr %12, align 8, !tbaa !25
  %13 = getelementptr inbounds nuw ptr, ptr %.val13.val, i64 %indvars.iv
  %14 = load ptr, ptr %13, align 8, !tbaa !27
  %15 = ptrtoint ptr %14 to i64
  %16 = xor i64 %15, 1
  %17 = inttoptr i64 %16 to ptr
  %18 = tail call ptr @Abc_AigAnd(ptr noundef %11, ptr noundef %.016, ptr noundef %17) #13
  %indvars.iv.next = add nuw nsw i64 %indvars.iv, 1
  %exitcond.not = icmp eq i64 %indvars.iv.next, %wide.trip.count
  br i1 %exitcond.not, label %._crit_edge, label %10, !llvm.loop !61

._crit_edge:                                      ; preds = %10, %1
  %.0.lcssa = phi ptr [ %5, %1 ], [ %18, %10 ]
  %19 = getelementptr i8, ptr %4, i64 48
  %.val14 = load ptr, ptr %19, align 8, !tbaa !58
  %20 = getelementptr i8, ptr %.val14, i64 8
  %.val14.val = load ptr, ptr %20, align 8, !tbaa !25
  %.val14.val.val = load ptr, ptr %.val14.val, align 8, !tbaa !27
  tail call void @Abc_ObjAddFanin(ptr noundef %.val14.val.val, ptr noundef %.0.lcssa) #13
  ret ptr %4
}